
lab4:     file format elf64-x86-64


Disassembly of section .init:

00000000004005b0 <_init>:
  4005b0:	48 83 ec 08          	sub    $0x8,%rsp
  4005b4:	48 8b 05 3d 0a 20 00 	mov    0x200a3d(%rip),%rax        # 600ff8 <_DYNAMIC+0x1d0>
  4005bb:	48 85 c0             	test   %rax,%rax
  4005be:	74 05                	je     4005c5 <_init+0x15>
  4005c0:	e8 6b 00 00 00       	callq  400630 <__gmon_start__@plt>
  4005c5:	48 83 c4 08          	add    $0x8,%rsp
  4005c9:	c3                   	retq   

Disassembly of section .plt:

00000000004005d0 <putchar@plt-0x10>:
  4005d0:	ff 35 32 0a 20 00    	pushq  0x200a32(%rip)        # 601008 <_GLOBAL_OFFSET_TABLE_+0x8>
  4005d6:	ff 25 34 0a 20 00    	jmpq   *0x200a34(%rip)        # 601010 <_GLOBAL_OFFSET_TABLE_+0x10>
  4005dc:	0f 1f 40 00          	nopl   0x0(%rax)

00000000004005e0 <putchar@plt>:
  4005e0:	ff 25 32 0a 20 00    	jmpq   *0x200a32(%rip)        # 601018 <_GLOBAL_OFFSET_TABLE_+0x18>
  4005e6:	68 00 00 00 00       	pushq  $0x0
  4005eb:	e9 e0 ff ff ff       	jmpq   4005d0 <_init+0x20>

00000000004005f0 <puts@plt>:
  4005f0:	ff 25 2a 0a 20 00    	jmpq   *0x200a2a(%rip)        # 601020 <_GLOBAL_OFFSET_TABLE_+0x20>
  4005f6:	68 01 00 00 00       	pushq  $0x1
  4005fb:	e9 d0 ff ff ff       	jmpq   4005d0 <_init+0x20>

0000000000400600 <system@plt>:
  400600:	ff 25 22 0a 20 00    	jmpq   *0x200a22(%rip)        # 601028 <_GLOBAL_OFFSET_TABLE_+0x28>
  400606:	68 02 00 00 00       	pushq  $0x2
  40060b:	e9 c0 ff ff ff       	jmpq   4005d0 <_init+0x20>

0000000000400610 <printf@plt>:
  400610:	ff 25 1a 0a 20 00    	jmpq   *0x200a1a(%rip)        # 601030 <_GLOBAL_OFFSET_TABLE_+0x30>
  400616:	68 03 00 00 00       	pushq  $0x3
  40061b:	e9 b0 ff ff ff       	jmpq   4005d0 <_init+0x20>

0000000000400620 <__libc_start_main@plt>:
  400620:	ff 25 12 0a 20 00    	jmpq   *0x200a12(%rip)        # 601038 <_GLOBAL_OFFSET_TABLE_+0x38>
  400626:	68 04 00 00 00       	pushq  $0x4
  40062b:	e9 a0 ff ff ff       	jmpq   4005d0 <_init+0x20>

0000000000400630 <__gmon_start__@plt>:
  400630:	ff 25 0a 0a 20 00    	jmpq   *0x200a0a(%rip)        # 601040 <_GLOBAL_OFFSET_TABLE_+0x40>
  400636:	68 05 00 00 00       	pushq  $0x5
  40063b:	e9 90 ff ff ff       	jmpq   4005d0 <_init+0x20>

0000000000400640 <fflush@plt>:
  400640:	ff 25 02 0a 20 00    	jmpq   *0x200a02(%rip)        # 601048 <_GLOBAL_OFFSET_TABLE_+0x48>
  400646:	68 06 00 00 00       	pushq  $0x6
  40064b:	e9 80 ff ff ff       	jmpq   4005d0 <_init+0x20>

0000000000400650 <atoi@plt>:
  400650:	ff 25 fa 09 20 00    	jmpq   *0x2009fa(%rip)        # 601050 <_GLOBAL_OFFSET_TABLE_+0x50>
  400656:	68 07 00 00 00       	pushq  $0x7
  40065b:	e9 70 ff ff ff       	jmpq   4005d0 <_init+0x20>

0000000000400660 <exit@plt>:
  400660:	ff 25 f2 09 20 00    	jmpq   *0x2009f2(%rip)        # 601058 <_GLOBAL_OFFSET_TABLE_+0x58>
  400666:	68 08 00 00 00       	pushq  $0x8
  40066b:	e9 60 ff ff ff       	jmpq   4005d0 <_init+0x20>

0000000000400670 <sleep@plt>:
  400670:	ff 25 ea 09 20 00    	jmpq   *0x2009ea(%rip)        # 601060 <_GLOBAL_OFFSET_TABLE_+0x60>
  400676:	68 09 00 00 00       	pushq  $0x9
  40067b:	e9 50 ff ff ff       	jmpq   4005d0 <_init+0x20>

Disassembly of section .text:

0000000000400680 <_start>:
  400680:	31 ed                	xor    %ebp,%ebp
  400682:	49 89 d1             	mov    %rdx,%r9
  400685:	5e                   	pop    %rsi
  400686:	48 89 e2             	mov    %rsp,%rdx
  400689:	48 83 e4 f0          	and    $0xfffffffffffffff0,%rsp
  40068d:	50                   	push   %rax
  40068e:	54                   	push   %rsp
  40068f:	49 c7 c0 b0 0a 40 00 	mov    $0x400ab0,%r8
  400696:	48 c7 c1 40 0a 40 00 	mov    $0x400a40,%rcx
  40069d:	48 c7 c7 07 08 40 00 	mov    $0x400807,%rdi
  4006a4:	e8 77 ff ff ff       	callq  400620 <__libc_start_main@plt>
  4006a9:	f4                   	hlt    
  4006aa:	66 0f 1f 44 00 00    	nopw   0x0(%rax,%rax,1)

00000000004006b0 <deregister_tm_clones>:
  4006b0:	b8 7f 10 60 00       	mov    $0x60107f,%eax
  4006b5:	55                   	push   %rbp
  4006b6:	48 2d 78 10 60 00    	sub    $0x601078,%rax
  4006bc:	48 83 f8 0e          	cmp    $0xe,%rax
  4006c0:	48 89 e5             	mov    %rsp,%rbp
  4006c3:	77 02                	ja     4006c7 <deregister_tm_clones+0x17>
  4006c5:	5d                   	pop    %rbp
  4006c6:	c3                   	retq   
  4006c7:	b8 00 00 00 00       	mov    $0x0,%eax
  4006cc:	48 85 c0             	test   %rax,%rax
  4006cf:	74 f4                	je     4006c5 <deregister_tm_clones+0x15>
  4006d1:	5d                   	pop    %rbp
  4006d2:	bf 78 10 60 00       	mov    $0x601078,%edi
  4006d7:	ff e0                	jmpq   *%rax
  4006d9:	0f 1f 80 00 00 00 00 	nopl   0x0(%rax)

00000000004006e0 <register_tm_clones>:
  4006e0:	b8 78 10 60 00       	mov    $0x601078,%eax
  4006e5:	55                   	push   %rbp
  4006e6:	48 2d 78 10 60 00    	sub    $0x601078,%rax
  4006ec:	48 c1 f8 03          	sar    $0x3,%rax
  4006f0:	48 89 e5             	mov    %rsp,%rbp
  4006f3:	48 89 c2             	mov    %rax,%rdx
  4006f6:	48 c1 ea 3f          	shr    $0x3f,%rdx
  4006fa:	48 01 d0             	add    %rdx,%rax
  4006fd:	48 d1 f8             	sar    %rax
  400700:	75 02                	jne    400704 <register_tm_clones+0x24>
  400702:	5d                   	pop    %rbp
  400703:	c3                   	retq   
  400704:	ba 00 00 00 00       	mov    $0x0,%edx
  400709:	48 85 d2             	test   %rdx,%rdx
  40070c:	74 f4                	je     400702 <register_tm_clones+0x22>
  40070e:	5d                   	pop    %rbp
  40070f:	48 89 c6             	mov    %rax,%rsi
  400712:	bf 78 10 60 00       	mov    $0x601078,%edi
  400717:	ff e2                	jmpq   *%rdx
  400719:	0f 1f 80 00 00 00 00 	nopl   0x0(%rax)

0000000000400720 <__do_global_dtors_aux>:
  400720:	80 3d 61 09 20 00 00 	cmpb   $0x0,0x200961(%rip)        # 601088 <completed.6973>
  400727:	75 11                	jne    40073a <__do_global_dtors_aux+0x1a>
  400729:	55                   	push   %rbp
  40072a:	48 89 e5             	mov    %rsp,%rbp
  40072d:	e8 7e ff ff ff       	callq  4006b0 <deregister_tm_clones>
  400732:	5d                   	pop    %rbp
  400733:	c6 05 4e 09 20 00 01 	movb   $0x1,0x20094e(%rip)        # 601088 <completed.6973>
  40073a:	f3 c3                	repz retq 
  40073c:	0f 1f 40 00          	nopl   0x0(%rax)

0000000000400740 <frame_dummy>:
  400740:	48 83 3d d8 06 20 00 	cmpq   $0x0,0x2006d8(%rip)        # 600e20 <__JCR_END__>
  400747:	00 
  400748:	74 1e                	je     400768 <frame_dummy+0x28>
  40074a:	b8 00 00 00 00       	mov    $0x0,%eax
  40074f:	48 85 c0             	test   %rax,%rax
  400752:	74 14                	je     400768 <frame_dummy+0x28>
  400754:	55                   	push   %rbp
  400755:	bf 20 0e 60 00       	mov    $0x600e20,%edi
  40075a:	48 89 e5             	mov    %rsp,%rbp
  40075d:	ff d0                	callq  *%rax
  40075f:	5d                   	pop    %rbp
  400760:	e9 7b ff ff ff       	jmpq   4006e0 <register_tm_clones>
  400765:	0f 1f 00             	nopl   (%rax)
  400768:	e9 73 ff ff ff       	jmpq   4006e0 <register_tm_clones>

000000000040076d <g>:
  40076d:	55                   	push   %rbp
  40076e:	48 89 e5             	mov    %rsp,%rbp
  400771:	bf c8 0a 40 00       	mov    $0x400ac8,%edi
  400776:	e8 75 fe ff ff       	callq  4005f0 <puts@plt>
  40077b:	bf 00 00 00 00       	mov    $0x0,%edi
  400780:	e8 db fe ff ff       	callq  400660 <exit@plt>
  400785:	5d                   	pop    %rbp
  400786:	c3                   	retq   

0000000000400787 <f>:
  400787:	55                   	push   %rbp
  400788:	48 89 e5             	mov    %rsp,%rbp
  40078b:	48 83 ec 10          	sub    $0x10,%rsp
  40078f:	48 89 7d f8          	mov    %rdi,-0x8(%rbp)
  400793:	0f b6 05 f2 08 20 00 	movzbl 0x2008f2(%rip),%eax        # 60108c <printstack>
  40079a:	84 c0                	test   %al,%al
  40079c:	74 10                	je     4007ae <f+0x27>
  40079e:	48 8d 45 f8          	lea    -0x8(%rbp),%rax
  4007a2:	48 83 c0 30          	add    $0x30,%rax
  4007a6:	48 89 c7             	mov    %rax,%rdi
  4007a9:	e8 0f 02 00 00       	callq  4009bd <printStack>
  4007ae:	8b 05 dc 08 20 00    	mov    0x2008dc(%rip),%eax        # 601090 <thevariable>
  4007b4:	83 f8 31             	cmp    $0x31,%eax
  4007b7:	7e 0f                	jle    4007c8 <f+0x41>
  4007b9:	48 8d 45 f8          	lea    -0x8(%rbp),%rax
  4007bd:	48 83 c0 30          	add    $0x30,%rax
  4007c1:	48 c7 00 6d 07 40 00 	movq   $0x40076d,(%rax)
  4007c8:	0f b6 05 bd 08 20 00 	movzbl 0x2008bd(%rip),%eax        # 60108c <printstack>
  4007cf:	84 c0                	test   %al,%al
  4007d1:	74 10                	je     4007e3 <f+0x5c>
  4007d3:	48 8d 45 f8          	lea    -0x8(%rbp),%rax
  4007d7:	48 83 c0 30          	add    $0x30,%rax
  4007db:	48 89 c7             	mov    %rax,%rdi
  4007de:	e8 da 01 00 00       	callq  4009bd <printStack>
  4007e3:	48 8b 45 f8          	mov    -0x8(%rbp),%rax
  4007e7:	c9                   	leaveq 
  4007e8:	c3                   	retq   

00000000004007e9 <h>:
  4007e9:	55                   	push   %rbp
  4007ea:	48 89 e5             	mov    %rsp,%rbp
  4007ed:	48 83 ec 10          	sub    $0x10,%rsp
  4007f1:	48 c7 45 f8 23 01 00 	movq   $0x123,-0x8(%rbp)
  4007f8:	00 
  4007f9:	48 8b 45 f8          	mov    -0x8(%rbp),%rax
  4007fd:	48 89 c7             	mov    %rax,%rdi
  400800:	e8 82 ff ff ff       	callq  400787 <f>
  400805:	c9                   	leaveq 
  400806:	c3                   	retq   

0000000000400807 <main>:
  400807:	55                   	push   %rbp
  400808:	48 89 e5             	mov    %rsp,%rbp
  40080b:	48 83 ec 10          	sub    $0x10,%rsp
  40080f:	89 7d fc             	mov    %edi,-0x4(%rbp)
  400812:	48 89 75 f0          	mov    %rsi,-0x10(%rbp)
  400816:	83 7d fc 01          	cmpl   $0x1,-0x4(%rbp)
  40081a:	7f 14                	jg     400830 <main+0x29>
  40081c:	bf 08 0b 40 00       	mov    $0x400b08,%edi
  400821:	e8 ca fd ff ff       	callq  4005f0 <puts@plt>
  400826:	bf 00 00 00 00       	mov    $0x0,%edi
  40082b:	e8 30 fe ff ff       	callq  400660 <exit@plt>
  400830:	48 8b 45 f0          	mov    -0x10(%rbp),%rax
  400834:	48 83 c0 08          	add    $0x8,%rax
  400838:	48 8b 00             	mov    (%rax),%rax
  40083b:	48 89 c7             	mov    %rax,%rdi
  40083e:	e8 0d fe ff ff       	callq  400650 <atoi@plt>
  400843:	89 05 47 08 20 00    	mov    %eax,0x200847(%rip)        # 601090 <thevariable>
  400849:	8b 05 41 08 20 00    	mov    0x200841(%rip),%eax        # 601090 <thevariable>
  40084f:	83 f8 31             	cmp    $0x31,%eax
  400852:	0f 8f d8 00 00 00    	jg     400930 <main+0x129>
  400858:	bf 32 0b 40 00       	mov    $0x400b32,%edi
  40085d:	b8 00 00 00 00       	mov    $0x0,%eax
  400862:	e8 a9 fd ff ff       	callq  400610 <printf@plt>
  400867:	48 8b 05 12 08 20 00 	mov    0x200812(%rip),%rax        # 601080 <stdout@@GLIBC_2.2.5>
  40086e:	48 89 c7             	mov    %rax,%rdi
  400871:	e8 ca fd ff ff       	callq  400640 <fflush@plt>
  400876:	bf 02 00 00 00       	mov    $0x2,%edi
  40087b:	b8 00 00 00 00       	mov    $0x0,%eax
  400880:	e8 eb fd ff ff       	callq  400670 <sleep@plt>
  400885:	bf 46 0b 40 00       	mov    $0x400b46,%edi
  40088a:	b8 00 00 00 00       	mov    $0x0,%eax
  40088f:	e8 7c fd ff ff       	callq  400610 <printf@plt>
  400894:	48 8b 05 e5 07 20 00 	mov    0x2007e5(%rip),%rax        # 601080 <stdout@@GLIBC_2.2.5>
  40089b:	48 89 c7             	mov    %rax,%rdi
  40089e:	e8 9d fd ff ff       	callq  400640 <fflush@plt>
  4008a3:	bf 02 00 00 00       	mov    $0x2,%edi
  4008a8:	b8 00 00 00 00       	mov    $0x0,%eax
  4008ad:	e8 be fd ff ff       	callq  400670 <sleep@plt>
  4008b2:	8b 05 d8 07 20 00    	mov    0x2007d8(%rip),%eax        # 601090 <thevariable>
  4008b8:	83 f8 13             	cmp    $0x13,%eax
  4008bb:	7f 11                	jg     4008ce <main+0xc7>
  4008bd:	bf 58 0b 40 00       	mov    $0x400b58,%edi
  4008c2:	b8 00 00 00 00       	mov    $0x0,%eax
  4008c7:	e8 44 fd ff ff       	callq  400610 <printf@plt>
  4008cc:	eb 2b                	jmp    4008f9 <main+0xf2>
  4008ce:	8b 05 bc 07 20 00    	mov    0x2007bc(%rip),%eax        # 601090 <thevariable>
  4008d4:	83 f8 1d             	cmp    $0x1d,%eax
  4008d7:	7f 11                	jg     4008ea <main+0xe3>
  4008d9:	bf 6d 0b 40 00       	mov    $0x400b6d,%edi
  4008de:	b8 00 00 00 00       	mov    $0x0,%eax
  4008e3:	e8 28 fd ff ff       	callq  400610 <printf@plt>
  4008e8:	eb 0f                	jmp    4008f9 <main+0xf2>
  4008ea:	bf 88 0b 40 00       	mov    $0x400b88,%edi
  4008ef:	b8 00 00 00 00       	mov    $0x0,%eax
  4008f4:	e8 17 fd ff ff       	callq  400610 <printf@plt>
  4008f9:	48 8b 05 80 07 20 00 	mov    0x200780(%rip),%rax        # 601080 <stdout@@GLIBC_2.2.5>
  400900:	48 89 c7             	mov    %rax,%rdi
  400903:	e8 38 fd ff ff       	callq  400640 <fflush@plt>
  400908:	bf 02 00 00 00       	mov    $0x2,%edi
  40090d:	b8 00 00 00 00       	mov    $0x0,%eax
  400912:	e8 59 fd ff ff       	callq  400670 <sleep@plt>
  400917:	bf 0a 00 00 00       	mov    $0xa,%edi
  40091c:	e8 bf fc ff ff       	callq  4005e0 <putchar@plt>
  400921:	48 8b 05 58 07 20 00 	mov    0x200758(%rip),%rax        # 601080 <stdout@@GLIBC_2.2.5>
  400928:	48 89 c7             	mov    %rax,%rdi
  40092b:	e8 10 fd ff ff       	callq  400640 <fflush@plt>
  400930:	83 7d fc 02          	cmpl   $0x2,-0x4(%rbp)
  400934:	75 09                	jne    40093f <main+0x138>
  400936:	c6 05 4f 07 20 00 00 	movb   $0x0,0x20074f(%rip)        # 60108c <printstack>
  40093d:	eb 07                	jmp    400946 <main+0x13f>
  40093f:	c6 05 46 07 20 00 01 	movb   $0x1,0x200746(%rip)        # 60108c <printstack>
  400946:	b8 00 00 00 00       	mov    $0x0,%eax
  40094b:	e8 99 fe ff ff       	callq  4007e9 <h>
  400950:	8b 05 3a 07 20 00    	mov    0x20073a(%rip),%eax        # 601090 <thevariable>
  400956:	83 f8 09             	cmp    $0x9,%eax
  400959:	7f 0c                	jg     400967 <main+0x160>
  40095b:	bf ac 0b 40 00       	mov    $0x400bac,%edi
  400960:	e8 8b fc ff ff       	callq  4005f0 <puts@plt>
  400965:	eb 4f                	jmp    4009b6 <main+0x1af>
  400967:	8b 05 23 07 20 00    	mov    0x200723(%rip),%eax        # 601090 <thevariable>
  40096d:	83 f8 13             	cmp    $0x13,%eax
  400970:	7f 0c                	jg     40097e <main+0x177>
  400972:	bf b9 0b 40 00       	mov    $0x400bb9,%edi
  400977:	e8 74 fc ff ff       	callq  4005f0 <puts@plt>
  40097c:	eb 38                	jmp    4009b6 <main+0x1af>
  40097e:	8b 05 0c 07 20 00    	mov    0x20070c(%rip),%eax        # 601090 <thevariable>
  400984:	83 f8 1d             	cmp    $0x1d,%eax
  400987:	7f 0c                	jg     400995 <main+0x18e>
  400989:	bf c8 0b 40 00       	mov    $0x400bc8,%edi
  40098e:	e8 5d fc ff ff       	callq  4005f0 <puts@plt>
  400993:	eb 21                	jmp    4009b6 <main+0x1af>
  400995:	8b 05 f5 06 20 00    	mov    0x2006f5(%rip),%eax        # 601090 <thevariable>
  40099b:	83 f8 27             	cmp    $0x27,%eax
  40099e:	7f 16                	jg     4009b6 <main+0x1af>
  4009a0:	bf d4 0b 40 00       	mov    $0x400bd4,%edi
  4009a5:	e8 46 fc ff ff       	callq  4005f0 <puts@plt>
  4009aa:	48 8b 45 f0          	mov    -0x10(%rbp),%rax
  4009ae:	48 89 c7             	mov    %rax,%rdi
  4009b1:	e8 07 00 00 00       	callq  4009bd <printStack>
  4009b6:	b8 00 00 00 00       	mov    $0x0,%eax
  4009bb:	c9                   	leaveq 
  4009bc:	c3                   	retq   

00000000004009bd <printStack>:
  4009bd:	55                   	push   %rbp
  4009be:	48 89 e5             	mov    %rsp,%rbp
  4009c1:	48 83 ec 20          	sub    $0x20,%rsp
  4009c5:	48 89 7d e8          	mov    %rdi,-0x18(%rbp)
  4009c9:	bf e7 0b 40 00       	mov    $0x400be7,%edi
  4009ce:	e8 1d fc ff ff       	callq  4005f0 <puts@plt>
  4009d3:	c7 45 fc fd ff ff ff 	movl   $0xfffffffd,-0x4(%rbp)
  4009da:	eb 45                	jmp    400a21 <printStack+0x64>
  4009dc:	8b 45 fc             	mov    -0x4(%rbp),%eax
  4009df:	48 98                	cltq   
  4009e1:	48 8d 14 c5 00 00 00 	lea    0x0(,%rax,8),%rdx
  4009e8:	00 
  4009e9:	48 8b 45 e8          	mov    -0x18(%rbp),%rax
  4009ed:	48 01 d0             	add    %rdx,%rax
  4009f0:	48 8b 00             	mov    (%rax),%rax
  4009f3:	8b 55 fc             	mov    -0x4(%rbp),%edx
  4009f6:	48 63 d2             	movslq %edx,%rdx
  4009f9:	48 8d 0c d5 00 00 00 	lea    0x0(,%rdx,8),%rcx
  400a00:	00 
  400a01:	48 8b 55 e8          	mov    -0x18(%rbp),%rdx
  400a05:	48 01 d1             	add    %rdx,%rcx
  400a08:	48 89 c2             	mov    %rax,%rdx
  400a0b:	48 89 ce             	mov    %rcx,%rsi
  400a0e:	bf ee 0b 40 00       	mov    $0x400bee,%edi
  400a13:	b8 00 00 00 00       	mov    $0x0,%eax
  400a18:	e8 f3 fb ff ff       	callq  400610 <printf@plt>
  400a1d:	83 45 fc 01          	addl   $0x1,-0x4(%rbp)
  400a21:	83 7d fc 09          	cmpl   $0x9,-0x4(%rbp)
  400a25:	7e b5                	jle    4009dc <printStack+0x1f>
  400a27:	bf f7 0b 40 00       	mov    $0x400bf7,%edi
  400a2c:	e8 bf fb ff ff       	callq  4005f0 <puts@plt>
  400a31:	c9                   	leaveq 
  400a32:	c3                   	retq   
  400a33:	66 2e 0f 1f 84 00 00 	nopw   %cs:0x0(%rax,%rax,1)
  400a3a:	00 00 00 
  400a3d:	0f 1f 00             	nopl   (%rax)

0000000000400a40 <__libc_csu_init>:
  400a40:	41 57                	push   %r15
  400a42:	41 89 ff             	mov    %edi,%r15d
  400a45:	41 56                	push   %r14
  400a47:	49 89 f6             	mov    %rsi,%r14
  400a4a:	41 55                	push   %r13
  400a4c:	49 89 d5             	mov    %rdx,%r13
  400a4f:	41 54                	push   %r12
  400a51:	4c 8d 25 b8 03 20 00 	lea    0x2003b8(%rip),%r12        # 600e10 <__frame_dummy_init_array_entry>
  400a58:	55                   	push   %rbp
  400a59:	48 8d 2d b8 03 20 00 	lea    0x2003b8(%rip),%rbp        # 600e18 <__init_array_end>
  400a60:	53                   	push   %rbx
  400a61:	4c 29 e5             	sub    %r12,%rbp
  400a64:	31 db                	xor    %ebx,%ebx
  400a66:	48 c1 fd 03          	sar    $0x3,%rbp
  400a6a:	48 83 ec 08          	sub    $0x8,%rsp
  400a6e:	e8 3d fb ff ff       	callq  4005b0 <_init>
  400a73:	48 85 ed             	test   %rbp,%rbp
  400a76:	74 1e                	je     400a96 <__libc_csu_init+0x56>
  400a78:	0f 1f 84 00 00 00 00 	nopl   0x0(%rax,%rax,1)
  400a7f:	00 
  400a80:	4c 89 ea             	mov    %r13,%rdx
  400a83:	4c 89 f6             	mov    %r14,%rsi
  400a86:	44 89 ff             	mov    %r15d,%edi
  400a89:	41 ff 14 dc          	callq  *(%r12,%rbx,8)
  400a8d:	48 83 c3 01          	add    $0x1,%rbx
  400a91:	48 39 eb             	cmp    %rbp,%rbx
  400a94:	75 ea                	jne    400a80 <__libc_csu_init+0x40>
  400a96:	48 83 c4 08          	add    $0x8,%rsp
  400a9a:	5b                   	pop    %rbx
  400a9b:	5d                   	pop    %rbp
  400a9c:	41 5c                	pop    %r12
  400a9e:	41 5d                	pop    %r13
  400aa0:	41 5e                	pop    %r14
  400aa2:	41 5f                	pop    %r15
  400aa4:	c3                   	retq   
  400aa5:	66 66 2e 0f 1f 84 00 	data16 nopw %cs:0x0(%rax,%rax,1)
  400aac:	00 00 00 00 

0000000000400ab0 <__libc_csu_fini>:
  400ab0:	f3 c3                	repz retq 

Disassembly of section .fini:

0000000000400ab4 <_fini>:
  400ab4:	48 83 ec 08          	sub    $0x8,%rsp
  400ab8:	48 83 c4 08          	add    $0x8,%rsp
  400abc:	c3                   	retq   
